target datalayout = "e-m:e-p270:32:32-p271:32:32-p272:64:64-i64:64-i128:128-f80:128-n8:16:32:64-S128"
target triple = "x86_64-pc-linux-gnu"

%"class.cvc5::internal::theory::eq::EqClassesIterator" = type { ptr, i64 }
%"class.cvc5::internal::theory::eq::EqualityEngine" = type { %"class.cvc5::context::ContextNotifyObj", %"class.cvc5::internal::EnvObj", ptr, ptr, ptr, %"class.cvc5::context::CDO", ptr, %"class.cvc5::internal::KindMap", %"class.cvc5::internal::KindMap", %"class.cvc5::internal::KindMap", %"class.std::unordered_map", %"class.std::unordered_map.2", %"class.std::vector", %"class.cvc5::context::CDO.23", %"class.std::vector.25", %"class.cvc5::context::CDO.23", %"class.std::vector.30", %"class.std::vector.35", %"class.cvc5::context::CDO.23", %"class.std::vector.40", %"class.std::vector.45", %"class.std::vector.50", %"class.std::vector.55", %"class.std::vector.60", %"class.std::vector.65", %"class.cvc5::context::CDO.23", %"class.std::vector.55", %"class.std::vector.70", %"class.std::vector.55", %"class.std::queue", %"class.std::vector.55", %"class.cvc5::context::CDO.23", %"class.std::vector.70", %"class.std::vector.70", %"struct.cvc5::internal::theory::eq::EqualityEngine::Statistics", %"class.std::deque.74", i8, %"class.cvc5::internal::NodeTemplate", i32, %"class.cvc5::internal::NodeTemplate", i32, i8, i8, ptr, i32, [4 x i8], %"class.cvc5::context::CDO.23", %"class.std::vector.80", %"class.cvc5::context::CDO.23", %"class.std::vector.55", %"class.std::unordered_map.85", %"class.std::vector.103", %"class.cvc5::context::CDO.108", %"class.std::vector.103", %"class.cvc5::context::CDO.108", %"class.cvc5::context::CDHashMap", %"class.std::__cxx11::basic_string" }
%"class.cvc5::context::ContextNotifyObj" = type { ptr, ptr, ptr }
%"class.cvc5::internal::EnvObj" = type { ptr, ptr }
%"class.cvc5::context::CDO" = type <{ %"class.cvc5::context::ContextObj", i8, [7 x i8] }>
%"class.cvc5::context::ContextObj" = type { ptr, ptr, ptr, ptr, ptr }
%"class.cvc5::internal::KindMap" = type { %"class.std::bitset" }
%"class.std::bitset" = type { %"struct.std::_Base_bitset" }
%"struct.std::_Base_bitset" = type { [6 x i64] }
%"class.std::unordered_map" = type { %"class.std::_Hashtable" }
%"class.std::_Hashtable" = type { ptr, i64, %"struct.std::__detail::_Hash_node_base", i64, %"struct.std::__detail::_Prime_rehash_policy", ptr }
%"struct.std::__detail::_Hash_node_base" = type { ptr }
%"struct.std::__detail::_Prime_rehash_policy" = type { float, i64 }
%"class.std::unordered_map.2" = type { %"class.std::_Hashtable.3" }
%"class.std::_Hashtable.3" = type { ptr, i64, %"struct.std::__detail::_Hash_node_base", i64, %"struct.std::__detail::_Prime_rehash_policy", ptr }
%"class.std::vector" = type { %"struct.std::_Vector_base" }
%"struct.std::_Vector_base" = type { %"struct.std::_Vector_base<cvc5::internal::theory::eq::FunctionApplication, std::allocator<cvc5::internal::theory::eq::FunctionApplication>>::_Vector_impl" }
%"struct.std::_Vector_base<cvc5::internal::theory::eq::FunctionApplication, std::allocator<cvc5::internal::theory::eq::FunctionApplication>>::_Vector_impl" = type { %"struct.std::_Vector_base<cvc5::internal::theory::eq::FunctionApplication, std::allocator<cvc5::internal::theory::eq::FunctionApplication>>::_Vector_impl_data" }
%"struct.std::_Vector_base<cvc5::internal::theory::eq::FunctionApplication, std::allocator<cvc5::internal::theory::eq::FunctionApplication>>::_Vector_impl_data" = type { ptr, ptr, ptr }
%"class.std::vector.25" = type { %"struct.std::_Vector_base.26" }
%"struct.std::_Vector_base.26" = type { %"struct.std::_Vector_base<cvc5::internal::NodeTemplate<true>, std::allocator<cvc5::internal::NodeTemplate<true>>>::_Vector_impl" }
%"struct.std::_Vector_base<cvc5::internal::NodeTemplate<true>, std::allocator<cvc5::internal::NodeTemplate<true>>>::_Vector_impl" = type { %"struct.std::_Vector_base<cvc5::internal::NodeTemplate<true>, std::allocator<cvc5::internal::NodeTemplate<true>>>::_Vector_impl_data" }
%"struct.std::_Vector_base<cvc5::internal::NodeTemplate<true>, std::allocator<cvc5::internal::NodeTemplate<true>>>::_Vector_impl_data" = type { ptr, ptr, ptr }
%"class.std::vector.30" = type { %"struct.std::_Vector_base.31" }
%"struct.std::_Vector_base.31" = type { %"struct.std::_Vector_base<cvc5::internal::theory::eq::FunctionApplicationPair, std::allocator<cvc5::internal::theory::eq::FunctionApplicationPair>>::_Vector_impl" }
%"struct.std::_Vector_base<cvc5::internal::theory::eq::FunctionApplicationPair, std::allocator<cvc5::internal::theory::eq::FunctionApplicationPair>>::_Vector_impl" = type { %"struct.std::_Vector_base<cvc5::internal::theory::eq::FunctionApplicationPair, std::allocator<cvc5::internal::theory::eq::FunctionApplicationPair>>::_Vector_impl_data" }
%"struct.std::_Vector_base<cvc5::internal::theory::eq::FunctionApplicationPair, std::allocator<cvc5::internal::theory::eq::FunctionApplicationPair>>::_Vector_impl_data" = type { ptr, ptr, ptr }
%"class.std::vector.35" = type { %"struct.std::_Vector_base.36" }
%"struct.std::_Vector_base.36" = type { %"struct.std::_Vector_base<cvc5::internal::theory::eq::EqualityNode, std::allocator<cvc5::internal::theory::eq::EqualityNode>>::_Vector_impl" }
%"struct.std::_Vector_base<cvc5::internal::theory::eq::EqualityNode, std::allocator<cvc5::internal::theory::eq::EqualityNode>>::_Vector_impl" = type { %"struct.std::_Vector_base<cvc5::internal::theory::eq::EqualityNode, std::allocator<cvc5::internal::theory::eq::EqualityNode>>::_Vector_impl_data" }
%"struct.std::_Vector_base<cvc5::internal::theory::eq::EqualityNode, std::allocator<cvc5::internal::theory::eq::EqualityNode>>::_Vector_impl_data" = type { ptr, ptr, ptr }
%"class.std::vector.40" = type { %"struct.std::_Vector_base.41" }
%"struct.std::_Vector_base.41" = type { %"struct.std::_Vector_base<cvc5::internal::theory::eq::UseListNode, std::allocator<cvc5::internal::theory::eq::UseListNode>>::_Vector_impl" }
%"struct.std::_Vector_base<cvc5::internal::theory::eq::UseListNode, std::allocator<cvc5::internal::theory::eq::UseListNode>>::_Vector_impl" = type { %"struct.std::_Vector_base<cvc5::internal::theory::eq::UseListNode, std::allocator<cvc5::internal::theory::eq::UseListNode>>::_Vector_impl_data" }
%"struct.std::_Vector_base<cvc5::internal::theory::eq::UseListNode, std::allocator<cvc5::internal::theory::eq::UseListNode>>::_Vector_impl_data" = type { ptr, ptr, ptr }
%"class.std::vector.45" = type { %"struct.std::_Vector_base.46" }
%"struct.std::_Vector_base.46" = type { %"struct.std::_Vector_base<cvc5::internal::theory::eq::EqualityEngine::Equality, std::allocator<cvc5::internal::theory::eq::EqualityEngine::Equality>>::_Vector_impl" }
%"struct.std::_Vector_base<cvc5::internal::theory::eq::EqualityEngine::Equality, std::allocator<cvc5::internal::theory::eq::EqualityEngine::Equality>>::_Vector_impl" = type { %"struct.std::_Vector_base<cvc5::internal::theory::eq::EqualityEngine::Equality, std::allocator<cvc5::internal::theory::eq::EqualityEngine::Equality>>::_Vector_impl_data" }
%"struct.std::_Vector_base<cvc5::internal::theory::eq::EqualityEngine::Equality, std::allocator<cvc5::internal::theory::eq::EqualityEngine::Equality>>::_Vector_impl_data" = type { ptr, ptr, ptr }
%"class.std::vector.50" = type { %"struct.std::_Vector_base.51" }
%"struct.std::_Vector_base.51" = type { %"struct.std::_Vector_base<cvc5::internal::theory::eq::EqualityEngine::EqualityEdge, std::allocator<cvc5::internal::theory::eq::EqualityEngine::EqualityEdge>>::_Vector_impl" }
%"struct.std::_Vector_base<cvc5::internal::theory::eq::EqualityEngine::EqualityEdge, std::allocator<cvc5::internal::theory::eq::EqualityEngine::EqualityEdge>>::_Vector_impl" = type { %"struct.std::_Vector_base<cvc5::internal::theory::eq::EqualityEngine::EqualityEdge, std::allocator<cvc5::internal::theory::eq::EqualityEngine::EqualityEdge>>::_Vector_impl_data" }
%"struct.std::_Vector_base<cvc5::internal::theory::eq::EqualityEngine::EqualityEdge, std::allocator<cvc5::internal::theory::eq::EqualityEngine::EqualityEdge>>::_Vector_impl_data" = type { ptr, ptr, ptr }
%"class.std::vector.60" = type { %"struct.std::_Vector_base.61" }
%"struct.std::_Vector_base.61" = type { %"struct.std::_Vector_base<cvc5::internal::theory::eq::EqualityEngine::Trigger, std::allocator<cvc5::internal::theory::eq::EqualityEngine::Trigger>>::_Vector_impl" }
%"struct.std::_Vector_base<cvc5::internal::theory::eq::EqualityEngine::Trigger, std::allocator<cvc5::internal::theory::eq::EqualityEngine::Trigger>>::_Vector_impl" = type { %"struct.std::_Vector_base<cvc5::internal::theory::eq::EqualityEngine::Trigger, std::allocator<cvc5::internal::theory::eq::EqualityEngine::Trigger>>::_Vector_impl_data" }
%"struct.std::_Vector_base<cvc5::internal::theory::eq::EqualityEngine::Trigger, std::allocator<cvc5::internal::theory::eq::EqualityEngine::Trigger>>::_Vector_impl_data" = type { ptr, ptr, ptr }
%"class.std::vector.65" = type { %"struct.std::_Vector_base.66" }
%"struct.std::_Vector_base.66" = type { %"struct.std::_Vector_base<cvc5::internal::theory::eq::TriggerInfo, std::allocator<cvc5::internal::theory::eq::TriggerInfo>>::_Vector_impl" }
%"struct.std::_Vector_base<cvc5::internal::theory::eq::TriggerInfo, std::allocator<cvc5::internal::theory::eq::TriggerInfo>>::_Vector_impl" = type { %"struct.std::_Vector_base<cvc5::internal::theory::eq::TriggerInfo, std::allocator<cvc5::internal::theory::eq::TriggerInfo>>::_Vector_impl_data" }
%"struct.std::_Vector_base<cvc5::internal::theory::eq::TriggerInfo, std::allocator<cvc5::internal::theory::eq::TriggerInfo>>::_Vector_impl_data" = type { ptr, ptr, ptr }
%"class.std::queue" = type { %"class.std::deque" }
%"class.std::deque" = type { %"class.std::_Deque_base" }
%"class.std::_Deque_base" = type { %"struct.std::_Deque_base<unsigned int, std::allocator<unsigned int>>::_Deque_impl" }
%"struct.std::_Deque_base<unsigned int, std::allocator<unsigned int>>::_Deque_impl" = type { %"struct.std::_Deque_base<unsigned int, std::allocator<unsigned int>>::_Deque_impl_data" }
%"struct.std::_Deque_base<unsigned int, std::allocator<unsigned int>>::_Deque_impl_data" = type { ptr, i64, %"struct.std::_Deque_iterator", %"struct.std::_Deque_iterator" }
%"struct.std::_Deque_iterator" = type { ptr, ptr, ptr, ptr }
%"class.std::vector.70" = type { %"struct.std::_Bvector_base" }
%"struct.std::_Bvector_base" = type { %"struct.std::_Bvector_base<std::allocator<bool>>::_Bvector_impl" }
%"struct.std::_Bvector_base<std::allocator<bool>>::_Bvector_impl" = type { %"struct.std::_Bvector_base<std::allocator<bool>>::_Bvector_impl_data" }
%"struct.std::_Bvector_base<std::allocator<bool>>::_Bvector_impl_data" = type { %"struct.std::_Bit_iterator", %"struct.std::_Bit_iterator", ptr }
%"struct.std::_Bit_iterator" = type { %"struct.std::_Bit_iterator_base.base", [4 x i8] }
%"struct.std::_Bit_iterator_base.base" = type <{ ptr, i32 }>
%"struct.cvc5::internal::theory::eq::EqualityEngine::Statistics" = type { %"class.cvc5::internal::IntStat", %"class.cvc5::internal::IntStat", %"class.cvc5::internal::IntStat", %"class.cvc5::internal::IntStat" }
%"class.cvc5::internal::IntStat" = type { %"class.cvc5::internal::ValueStat" }
%"class.cvc5::internal::ValueStat" = type { ptr }
%"class.std::deque.74" = type { %"class.std::_Deque_base.75" }
%"class.std::_Deque_base.75" = type { %"struct.std::_Deque_base<cvc5::internal::theory::eq::MergeCandidate, std::allocator<cvc5::internal::theory::eq::MergeCandidate>>::_Deque_impl" }
%"struct.std::_Deque_base<cvc5::internal::theory::eq::MergeCandidate, std::allocator<cvc5::internal::theory::eq::MergeCandidate>>::_Deque_impl" = type { %"struct.std::_Deque_base<cvc5::internal::theory::eq::MergeCandidate, std::allocator<cvc5::internal::theory::eq::MergeCandidate>>::_Deque_impl_data" }
%"struct.std::_Deque_base<cvc5::internal::theory::eq::MergeCandidate, std::allocator<cvc5::internal::theory::eq::MergeCandidate>>::_Deque_impl_data" = type { ptr, i64, %"struct.std::_Deque_iterator.79", %"struct.std::_Deque_iterator.79" }
%"struct.std::_Deque_iterator.79" = type { ptr, ptr, ptr, ptr }
%"class.cvc5::internal::NodeTemplate" = type { ptr }
%"class.std::vector.80" = type { %"struct.std::_Vector_base.81" }
%"struct.std::_Vector_base.81" = type { %"struct.std::_Vector_base<cvc5::internal::theory::eq::EqualityEngine::TriggerSetUpdate, std::allocator<cvc5::internal::theory::eq::EqualityEngine::TriggerSetUpdate>>::_Vector_impl" }
%"struct.std::_Vector_base<cvc5::internal::theory::eq::EqualityEngine::TriggerSetUpdate, std::allocator<cvc5::internal::theory::eq::EqualityEngine::TriggerSetUpdate>>::_Vector_impl" = type { %"struct.std::_Vector_base<cvc5::internal::theory::eq::EqualityEngine::TriggerSetUpdate, std::allocator<cvc5::internal::theory::eq::EqualityEngine::TriggerSetUpdate>>::_Vector_impl_data" }
%"struct.std::_Vector_base<cvc5::internal::theory::eq::EqualityEngine::TriggerSetUpdate, std::allocator<cvc5::internal::theory::eq::EqualityEngine::TriggerSetUpdate>>::_Vector_impl_data" = type { ptr, ptr, ptr }
%"class.cvc5::context::CDO.23" = type <{ %"class.cvc5::context::ContextObj", i32, [4 x i8] }>
%"class.std::vector.55" = type { %"struct.std::_Vector_base.56" }
%"struct.std::_Vector_base.56" = type { %"struct.std::_Vector_base<unsigned int, std::allocator<unsigned int>>::_Vector_impl" }
%"struct.std::_Vector_base<unsigned int, std::allocator<unsigned int>>::_Vector_impl" = type { %"struct.std::_Vector_base<unsigned int, std::allocator<unsigned int>>::_Vector_impl_data" }
%"struct.std::_Vector_base<unsigned int, std::allocator<unsigned int>>::_Vector_impl_data" = type { ptr, ptr, ptr }
%"class.std::unordered_map.85" = type { %"class.std::_Hashtable.86" }
%"class.std::_Hashtable.86" = type { ptr, i64, %"struct.std::__detail::_Hash_node_base", i64, %"struct.std::__detail::_Prime_rehash_policy", ptr }
%"class.std::vector.103" = type { %"struct.std::_Vector_base.104" }
%"struct.std::_Vector_base.104" = type { %"struct.std::_Vector_base<std::pair<unsigned int, unsigned int>, std::allocator<std::pair<unsigned int, unsigned int>>>::_Vector_impl" }
%"struct.std::_Vector_base<std::pair<unsigned int, unsigned int>, std::allocator<std::pair<unsigned int, unsigned int>>>::_Vector_impl" = type { %"struct.std::_Vector_base<std::pair<unsigned int, unsigned int>, std::allocator<std::pair<unsigned int, unsigned int>>>::_Vector_impl_data" }
%"struct.std::_Vector_base<std::pair<unsigned int, unsigned int>, std::allocator<std::pair<unsigned int, unsigned int>>>::_Vector_impl_data" = type { ptr, ptr, ptr }
%"class.cvc5::context::CDO.108" = type { %"class.cvc5::context::ContextObj", i64 }
%"class.cvc5::context::CDHashMap" = type { %"class.cvc5::context::ContextObj", %"class.std::unordered_map.109", ptr, ptr }
%"class.std::unordered_map.109" = type { %"class.std::_Hashtable.110" }
%"class.std::_Hashtable.110" = type { ptr, i64, %"struct.std::__detail::_Hash_node_base", i64, %"struct.std::__detail::_Prime_rehash_policy", ptr }
%"class.std::__cxx11::basic_string" = type { %"struct.std::__cxx11::basic_string<char>::_Alloc_hider", i64, %union.anon }
%"struct.std::__cxx11::basic_string<char>::_Alloc_hider" = type { ptr }
%union.anon = type { i64, [8 x i8] }

; Function Attrs: mustprogress nounwind uwtable
define linkonce_odr hidden noundef nonnull align 4 dereferenceable(4) ptr @_ZNK4cvc57context3CDOIjE3getEv(ptr noundef nonnull align 8 dereferenceable(44) %0) #4 comdat align 2 {
  %2 = alloca ptr, align 8
  store ptr %0, ptr %2, align 8, !tbaa !14
  %3 = load ptr, ptr %2, align 8
  %4 = getelementptr inbounds nuw %"class.cvc5::context::CDO.23", ptr %3, i32 0, i32 1
  ret ptr %4
}

; Function Attrs: mustprogress uwtable
define linkonce_odr hidden noundef i32 @_ZNK4cvc57context3CDOIjEcvKjEv(ptr noundef nonnull align 8 dereferenceable(44) %0) #5 comdat align 2 {
  %2 = alloca ptr, align 8
  store ptr %0, ptr %2, align 8, !tbaa !14
  %3 = load ptr, ptr %2, align 8
  %4 = call noundef nonnull align 4 dereferenceable(4) ptr @_ZNK4cvc57context3CDOIjE3getEv(ptr noundef nonnull align 8 dereferenceable(44) %3)
  %5 = load i32, ptr %4, align 4, !tbaa !16
  ret i32 %5
}

; Function Attrs: mustprogress uwtable
define hidden noundef zeroext i1 @_ZNK4cvc58internal6theory2eq17EqClassesIterator10isFinishedEv(ptr noundef nonnull align 8 dereferenceable(16) %0) #5 align 2 {
  %2 = alloca ptr, align 8
  store ptr %0, ptr %2, align 8, !tbaa !3
  %3 = load ptr, ptr %2, align 8
  %4 = getelementptr inbounds nuw %"class.cvc5::internal::theory::eq::EqClassesIterator", ptr %3, i32 0, i32 1
  %5 = load i64, ptr %4, align 8, !tbaa !12
  %6 = getelementptr inbounds nuw %"class.cvc5::internal::theory::eq::EqClassesIterator", ptr %3, i32 0, i32 0
  %7 = load ptr, ptr %6, align 8, !tbaa !8
  %8 = getelementptr inbounds nuw %"class.cvc5::internal::theory::eq::EqualityEngine", ptr %7, i32 0, i32 15
  %9 = call noundef i32 @_ZNK4cvc57context3CDOIjEcvKjEv(ptr noundef nonnull align 8 dereferenceable(44) %8)
  %10 = zext i32 %9 to i64
  %11 = icmp uge i64 %5, %10
  ret i1 %11
}